SF:/Users/tong.luo1ibm.com/Documents/Other/Learnings/code-coaching/github.com/moodytongytong/invaders/src/frame.rs
FN:5,_RNvNtCsbY8jSY01eRg_8invaders5frame9new_frame
FNDA:1,_RNvNtCsbY8jSY01eRg_8invaders5frame9new_frame
FNF:1
FNH:1
DA:5,1
DA:6,1
DA:7,1
BRF:0
BRH:0
LF:3
LH:3
end_of_record
SF:/Users/tong.luo1ibm.com/Documents/Other/Learnings/code-coaching/github.com/moodytongytong/invaders/src/invaders.rs
FN:87,_RNvMs_NtCsbY8jSY01eRg_8invaders8invadersNtB4_8Invaders14reached_bottom
FN:88,_RNCNvMs_NtCsbY8jSY01eRg_8invaders8invadersNtB6_8Invaders14reached_bottom0B8_
FN:84,_RNvMs_NtCsbY8jSY01eRg_8invaders8invadersNtB4_8Invaders10all_killed
FN:112,_RNvXs1_NtCsbY8jSY01eRg_8invaders8invadersNtB5_8InvadersNtNtB7_5frame8Drawable4draw
FN:106,_RNvXs0_NtCsbY8jSY01eRg_8invaders8invadersNtB5_8InvadersNtNtCsa6eo6Zp0ulZ_4core7default7Default7default
FN:138,_RNvNtNtCsbY8jSY01eRg_8invaders8invaders4tests_23invaders_move_correctly
FN:132,_RNvNtNtCsbY8jSY01eRg_8invaders8invaders4tests_38test_an_invader_army_correctly_created
FN:131,_RNCNvNtNtCsbY8jSY01eRg_8invaders8invaders4test38test_an_invader_army_correctly_created0B7_
FN:137,_RNCNvNtNtCsbY8jSY01eRg_8invaders8invaders4test23invaders_move_correctly0B7_
FN:15,_RNvMNtCsbY8jSY01eRg_8invaders8invadersNtB2_7Invader3new
FN:51,_RNvMs_NtCsbY8jSY01eRg_8invaders8invadersNtB4_8Invaders6update
FN:63,_RNCNvMs_NtCsbY8jSY01eRg_8invaders8invadersNtB6_8Invaders6updates_0B8_
FN:57,_RNCNvMs_NtCsbY8jSY01eRg_8invaders8invadersNtB6_8Invaders6update0B8_
FN:28,_RNvMs_NtCsbY8jSY01eRg_8invaders8invadersNtB4_8Invaders3new
FN:94,_RNCNvMs_NtCsbY8jSY01eRg_8invaders8invadersNtB6_8Invaders15kill_invader_at0B8_
FN:91,_RNvMs_NtCsbY8jSY01eRg_8invaders8invadersNtB4_8Invaders15kill_invader_at
FNDA:0,_RNvMs_NtCsbY8jSY01eRg_8invaders8invadersNtB4_8Invaders14reached_bottom
FNDA:0,_RNCNvMs_NtCsbY8jSY01eRg_8invaders8invadersNtB6_8Invaders14reached_bottom0B8_
FNDA:0,_RNvMs_NtCsbY8jSY01eRg_8invaders8invadersNtB4_8Invaders10all_killed
FNDA:0,_RNvXs1_NtCsbY8jSY01eRg_8invaders8invadersNtB5_8InvadersNtNtB7_5frame8Drawable4draw
FNDA:0,_RNvXs0_NtCsbY8jSY01eRg_8invaders8invadersNtB5_8InvadersNtNtCsa6eo6Zp0ulZ_4core7default7Default7default
FNDA:1,_RNvNtNtCsbY8jSY01eRg_8invaders8invaders4tests_23invaders_move_correctly
FNDA:1,_RNvNtNtCsbY8jSY01eRg_8invaders8invaders4tests_38test_an_invader_army_correctly_created
FNDA:1,_RNCNvNtNtCsbY8jSY01eRg_8invaders8invaders4test38test_an_invader_army_correctly_created0B7_
FNDA:1,_RNCNvNtNtCsbY8jSY01eRg_8invaders8invaders4test23invaders_move_correctly0B7_
FNDA:1,_RNvMNtCsbY8jSY01eRg_8invaders8invadersNtB2_7Invader3new
FNDA:1,_RNvMs_NtCsbY8jSY01eRg_8invaders8invadersNtB4_8Invaders6update
FNDA:72,_RNCNvMs_NtCsbY8jSY01eRg_8invaders8invadersNtB6_8Invaders6updates_0B8_
FNDA:0,_RNCNvMs_NtCsbY8jSY01eRg_8invaders8invadersNtB6_8Invaders6update0B8_
FNDA:4,_RNvMs_NtCsbY8jSY01eRg_8invaders8invadersNtB4_8Invaders3new
FNDA:145,_RNCNvMs_NtCsbY8jSY01eRg_8invaders8invadersNtB6_8Invaders15kill_invader_at0B8_
FNDA:1,_RNvMs_NtCsbY8jSY01eRg_8invaders8invadersNtB4_8Invaders15kill_invader_at
FNF:16
FNH:10
DA:15,1
DA:16,1
DA:17,1
DA:28,4
DA:29,4
DA:30,164
DA:31,3360
DA:32,3200
DA:33,3040
DA:34,2880
DA:35,2736
DA:36,1152
DA:37,576
DA:38,288
DA:39,288
DA:40,2912
DA:43,4
DA:44,4
DA:45,4
DA:46,4
DA:47,4
DA:48,4
DA:49,4
DA:50,4
DA:51,1
DA:52,1
DA:53,1
DA:54,1
DA:55,1
DA:56,1
DA:57,0
DA:58,0
DA:59,0
DA:60,0
DA:61,0
DA:63,72
DA:64,1
DA:65,0
DA:66,0
DA:67,1
DA:69,1
DA:70,0
DA:71,0
DA:72,0
DA:73,0
DA:74,0
DA:76,72
DA:77,72
DA:78,72
DA:80,1
DA:81,0
DA:82,0
DA:83,1
DA:84,0
DA:85,0
DA:86,0
DA:87,0
DA:88,0
DA:89,0
DA:91,2
DA:92,2
DA:93,2
DA:94,145
DA:96,1
DA:97,1
DA:98,1
DA:100,1
DA:102,2
DA:106,0
DA:107,0
DA:108,0
DA:112,0
DA:113,0
DA:114,0
DA:115,0
DA:116,0
DA:118,0
DA:120,0
DA:123,0
DA:131,1
DA:132,1
DA:133,1
DA:134,1
DA:135,1
DA:137,1
DA:138,1
DA:139,1
DA:140,1
DA:141,1
DA:142,1
DA:143,1
BRF:0
BRH:0
LF:95
LH:62
end_of_record
SF:/Users/tong.luo1ibm.com/Documents/Other/Learnings/code-coaching/github.com/moodytongytong/invaders/src/level.rs
FN:29,_RNvXs0_NtCsbY8jSY01eRg_8invaders5levelNtB5_5LevelNtNtB7_5frame8Drawable4draw
FN:23,_RNvXs_NtCsbY8jSY01eRg_8invaders5levelNtB4_5LevelNtNtCsa6eo6Zp0ulZ_4core7default7Default7default
FN:10,_RNvMNtCsbY8jSY01eRg_8invaders5levelNtB2_5Level3new
FN:14,_RNvMNtCsbY8jSY01eRg_8invaders5levelNtB2_5Level15increment_level
FN:57,_RNvNtNtCsbY8jSY01eRg_8invaders5level5testss_48should_increment_level_two_times_and_return_true
FN:46,_RNvNtNtCsbY8jSY01eRg_8invaders5level5testss_39should_increment_level_and_return_false
FN:56,_RNCNvNtNtCsbY8jSY01eRg_8invaders5level5tests48should_increment_level_two_times_and_return_true0B7_
FN:45,_RNCNvNtNtCsbY8jSY01eRg_8invaders5level5tests39should_increment_level_and_return_false0B7_
FNDA:0,_RNvXs0_NtCsbY8jSY01eRg_8invaders5levelNtB5_5LevelNtNtB7_5frame8Drawable4draw
FNDA:0,_RNvXs_NtCsbY8jSY01eRg_8invaders5levelNtB4_5LevelNtNtCsa6eo6Zp0ulZ_4core7default7Default7default
FNDA:2,_RNvMNtCsbY8jSY01eRg_8invaders5levelNtB2_5Level3new
FNDA:3,_RNvMNtCsbY8jSY01eRg_8invaders5levelNtB2_5Level15increment_level
FNDA:1,_RNvNtNtCsbY8jSY01eRg_8invaders5level5testss_48should_increment_level_two_times_and_return_true
FNDA:1,_RNvNtNtCsbY8jSY01eRg_8invaders5level5testss_39should_increment_level_and_return_false
FNDA:1,_RNCNvNtNtCsbY8jSY01eRg_8invaders5level5tests48should_increment_level_two_times_and_return_true0B7_
FNDA:1,_RNCNvNtNtCsbY8jSY01eRg_8invaders5level5tests39should_increment_level_and_return_false0B7_
FNF:8
FNH:6
DA:10,2
DA:11,2
DA:12,2
DA:14,3
DA:15,3
DA:16,3
DA:17,3
DA:18,3
DA:19,3
DA:23,0
DA:24,0
DA:25,0
DA:29,0
DA:30,0
DA:31,0
DA:34,0
DA:35,0
DA:36,0
DA:37,0
DA:38,0
DA:45,1
DA:46,1
DA:47,1
DA:48,1
DA:49,1
DA:50,1
DA:51,1
DA:52,1
DA:53,1
DA:54,1
DA:56,1
DA:57,1
DA:58,1
DA:59,1
DA:60,1
DA:61,1
DA:62,1
DA:63,1
DA:64,1
DA:65,1
DA:66,1
BRF:0
BRH:0
LF:41
LH:30
end_of_record
SF:/Users/tong.luo1ibm.com/Documents/Other/Learnings/code-coaching/github.com/moodytongytong/invaders/src/lib.rs
FN:1,_RNvCsbY8jSY01eRg_8invaders4main
FNDA:1,_RNvCsbY8jSY01eRg_8invaders4main
FNF:1
FNH:1
DA:1,1
BRF:0
BRH:0
LF:1
LH:1
end_of_record
SF:/Users/tong.luo1ibm.com/Documents/Other/Learnings/code-coaching/github.com/moodytongytong/invaders/src/main.rs
FN:1,_RNvCsbxLtEcf4kbL_8invaderss_4main
FN:35,_RNvCsbxLtEcf4kbL_8invaders10reset_game
FN:56,_RNCNvCsbxLtEcf4kbL_8invaders4main0B3_
FN:25,_RNvCsbxLtEcf4kbL_8invaders13render_screen
FN:41,_RNvCsbxLtEcf4kbL_8invaders4main
FNDA:1,_RNvCsbxLtEcf4kbL_8invaderss_4main
FNDA:0,_RNvCsbxLtEcf4kbL_8invaders10reset_game
FNDA:0,_RNCNvCsbxLtEcf4kbL_8invaders4main0B3_
FNDA:0,_RNvCsbxLtEcf4kbL_8invaders13render_screen
FNDA:0,_RNvCsbxLtEcf4kbL_8invaders4main
FNF:5
FNH:1
DA:1,1
DA:25,0
DA:26,0
DA:27,0
DA:28,0
DA:29,0
DA:30,0
DA:31,0
DA:32,0
DA:33,0
DA:35,0
DA:36,0
DA:37,0
DA:38,0
DA:39,0
DA:41,0
DA:42,0
DA:43,0
DA:44,0
DA:45,0
DA:46,0
DA:47,0
DA:48,0
DA:49,0
DA:50,0
DA:51,0
DA:52,0
DA:55,0
DA:56,0
DA:57,0
DA:58,0
DA:59,0
DA:60,0
DA:61,0
DA:62,0
DA:63,0
DA:64,0
DA:65,0
DA:66,0
DA:67,0
DA:69,0
DA:70,0
DA:71,0
DA:72,0
DA:73,0
DA:74,0
DA:75,0
DA:77,0
DA:78,0
DA:79,0
DA:80,0
DA:81,0
DA:83,0
DA:84,0
DA:85,0
DA:86,0
DA:89,0
DA:91,0
DA:93,0
DA:94,0
DA:95,0
DA:96,0
DA:97,0
DA:98,0
DA:101,0
DA:102,0
DA:103,0
DA:104,0
DA:105,0
DA:107,0
DA:108,0
DA:109,0
DA:111,0
DA:112,0
DA:113,0
DA:114,0
DA:115,0
DA:117,0
DA:121,0
DA:122,0
DA:123,0
DA:124,0
DA:125,0
DA:126,0
DA:127,0
DA:128,0
DA:129,0
DA:132,0
DA:133,0
DA:134,0
DA:135,0
DA:136,0
DA:137,0
DA:138,0
DA:139,0
DA:140,0
DA:141,0
DA:142,0
DA:143,0
DA:144,0
DA:145,0
DA:146,0
DA:147,0
DA:148,0
DA:149,0
DA:153,0
DA:154,0
DA:155,0
DA:156,0
DA:157,0
DA:158,0
DA:159,0
DA:160,0
BRF:0
BRH:0
LF:115
LH:1
end_of_record
SF:/Users/tong.luo1ibm.com/Documents/Other/Learnings/code-coaching/github.com/moodytongytong/invaders/src/menu.rs
FN:16,_RNvMNtCsbY8jSY01eRg_8invaders4menuNtB2_4Menu13change_option
FN:26,_RNvXs_NtCsbY8jSY01eRg_8invaders4menuNtB4_4MenuNtNtCsa6eo6Zp0ulZ_4core7default7Default7default
FN:33,_RNvXs0_NtCsbY8jSY01eRg_8invaders4menuNtB5_4MenuNtNtB7_5frame8Drawable4draw
FN:9,_RNvMNtCsbY8jSY01eRg_8invaders4menuNtB2_4Menu3new
FNDA:0,_RNvMNtCsbY8jSY01eRg_8invaders4menuNtB2_4Menu13change_option
FNDA:0,_RNvXs_NtCsbY8jSY01eRg_8invaders4menuNtB4_4MenuNtNtCsa6eo6Zp0ulZ_4core7default7Default7default
FNDA:0,_RNvXs0_NtCsbY8jSY01eRg_8invaders4menuNtB5_4MenuNtNtB7_5frame8Drawable4draw
FNDA:0,_RNvMNtCsbY8jSY01eRg_8invaders4menuNtB2_4Menu3new
FNF:4
FNH:0
DA:9,0
DA:10,0
DA:11,0
DA:12,0
DA:13,0
DA:14,0
DA:16,0
DA:17,0
DA:18,0
DA:19,0
DA:20,0
DA:21,0
DA:22,0
DA:26,0
DA:27,0
DA:28,0
DA:33,0
DA:34,0
DA:35,0
DA:36,0
DA:37,0
DA:38,0
DA:40,0
BRF:0
BRH:0
LF:23
LH:0
end_of_record
SF:/Users/tong.luo1ibm.com/Documents/Other/Learnings/code-coaching/github.com/moodytongytong/invaders/src/player.rs
FN:63,_RNvXs_NtCsbY8jSY01eRg_8invaders6playerNtB4_6PlayerNtNtCsa6eo6Zp0ulZ_4core7default7Default7default
FN:33,_RNvMNtCsbY8jSY01eRg_8invaders6playerNtB2_6Player5shoot
FN:69,_RNvXs0_NtCsbY8jSY01eRg_8invaders6playerNtB5_6PlayerNtNtB7_5frame8Drawable4draw
FN:41,_RNvMNtCsbY8jSY01eRg_8invaders6playerNtB2_6Player6update
FN:28,_RNvMNtCsbY8jSY01eRg_8invaders6playerNtB2_6Player10move_right
FN:16,_RNvMNtCsbY8jSY01eRg_8invaders6playerNtB2_6Player3new
FN:45,_RNCNvMNtCsbY8jSY01eRg_8invaders6playerNtB4_6Player6update0B6_
FN:23,_RNvMNtCsbY8jSY01eRg_8invaders6playerNtB2_6Player9move_left
FN:47,_RNvMNtCsbY8jSY01eRg_8invaders6playerNtB2_6Player11detect_hits
FN:101,_RNvNtNtCsbY8jSY01eRg_8invaders6player5testss_33player_does_not_move_left_at_edge
FN:109,_RNCNvNtNtCsbY8jSY01eRg_8invaders6player5tests33player_moves_right_if_not_at_edge0B7_
FN:117,_RNCNvNtNtCsbY8jSY01eRg_8invaders6player5tests34player_does_not_move_right_at_edge0B7_
FN:184,_RNvNtNtCsbY8jSY01eRg_8invaders6player5testss_45player_can_draw_itself_into_a_frame_correctly
FN:127,_RNvNtNtCsbY8jSY01eRg_8invaders6player5testss_31shot_created_when_player_shoots
FN:110,_RNvNtNtCsbY8jSY01eRg_8invaders6player5testss_33player_moves_right_if_not_at_edge
FN:183,_RNCNvNtNtCsbY8jSY01eRg_8invaders6player5tests45player_can_draw_itself_into_a_frame_correctly0B7_
FN:84,_RNCNvNtNtCsbY8jSY01eRg_8invaders6player5tests24player_created_correctly0B7_
FN:126,_RNCNvNtNtCsbY8jSY01eRg_8invaders6player5tests31shot_created_when_player_shoots0B7_
FN:137,_RNvNtNtCsbY8jSY01eRg_8invaders6player5testss_49shot_not_created_when_player_shoots_more_than_two
FN:93,_RNvNtNtCsbY8jSY01eRg_8invaders6player5testss_32player_moves_left_if_not_at_edge
FN:155,_RNCNvNtNtCsbY8jSY01eRg_8invaders6player5tests48player_hits_invader_directly_above_when_shooting0B7_
FN:118,_RNvNtNtCsbY8jSY01eRg_8invaders6player5testss_34player_does_not_move_right_at_edge
FN:92,_RNCNvNtNtCsbY8jSY01eRg_8invaders6player5tests32player_moves_left_if_not_at_edge0B7_
FN:136,_RNCNvNtNtCsbY8jSY01eRg_8invaders6player5tests49shot_not_created_when_player_shoots_more_than_two0B7_
FN:146,_RNvNtNtCsbY8jSY01eRg_8invaders6player5testss_33shot_expires_after_specified_time
FN:171,_RNCNvNtNtCsbY8jSY01eRg_8invaders6player5tests41player_does_not_hit_invaders_too_far_away0B7_
FN:85,_RNvNtNtCsbY8jSY01eRg_8invaders6player5testss_24player_created_correctly
FN:145,_RNCNvNtNtCsbY8jSY01eRg_8invaders6player5tests33shot_expires_after_specified_time0B7_
FN:100,_RNCNvNtNtCsbY8jSY01eRg_8invaders6player5tests33player_does_not_move_left_at_edge0B7_
FN:156,_RNvNtNtCsbY8jSY01eRg_8invaders6player5testss_48player_hits_invader_directly_above_when_shooting
FN:172,_RNvNtNtCsbY8jSY01eRg_8invaders6player5testss_41player_does_not_hit_invaders_too_far_away
FNDA:0,_RNvXs_NtCsbY8jSY01eRg_8invaders6playerNtB4_6PlayerNtNtCsa6eo6Zp0ulZ_4core7default7Default7default
FNDA:8,_RNvMNtCsbY8jSY01eRg_8invaders6playerNtB2_6Player5shoot
FNDA:1,_RNvXs0_NtCsbY8jSY01eRg_8invaders6playerNtB5_6PlayerNtNtB7_5frame8Drawable4draw
FNDA:4,_RNvMNtCsbY8jSY01eRg_8invaders6playerNtB2_6Player6update
FNDA:2,_RNvMNtCsbY8jSY01eRg_8invaders6playerNtB2_6Player10move_right
FNDA:11,_RNvMNtCsbY8jSY01eRg_8invaders6playerNtB2_6Player3new
FNDA:4,_RNCNvMNtCsbY8jSY01eRg_8invaders6playerNtB4_6Player6update0B6_
FNDA:2,_RNvMNtCsbY8jSY01eRg_8invaders6playerNtB2_6Player9move_left
FNDA:2,_RNvMNtCsbY8jSY01eRg_8invaders6playerNtB2_6Player11detect_hits
FNDA:1,_RNvNtNtCsbY8jSY01eRg_8invaders6player5testss_33player_does_not_move_left_at_edge
FNDA:1,_RNCNvNtNtCsbY8jSY01eRg_8invaders6player5tests33player_moves_right_if_not_at_edge0B7_
FNDA:1,_RNCNvNtNtCsbY8jSY01eRg_8invaders6player5tests34player_does_not_move_right_at_edge0B7_
FNDA:1,_RNvNtNtCsbY8jSY01eRg_8invaders6player5testss_45player_can_draw_itself_into_a_frame_correctly
FNDA:1,_RNvNtNtCsbY8jSY01eRg_8invaders6player5testss_31shot_created_when_player_shoots
FNDA:1,_RNvNtNtCsbY8jSY01eRg_8invaders6player5testss_33player_moves_right_if_not_at_edge
FNDA:1,_RNCNvNtNtCsbY8jSY01eRg_8invaders6player5tests45player_can_draw_itself_into_a_frame_correctly0B7_
FNDA:1,_RNCNvNtNtCsbY8jSY01eRg_8invaders6player5tests24player_created_correctly0B7_
FNDA:1,_RNCNvNtNtCsbY8jSY01eRg_8invaders6player5tests31shot_created_when_player_shoots0B7_
FNDA:1,_RNvNtNtCsbY8jSY01eRg_8invaders6player5testss_49shot_not_created_when_player_shoots_more_than_two
FNDA:1,_RNvNtNtCsbY8jSY01eRg_8invaders6player5testss_32player_moves_left_if_not_at_edge
FNDA:1,_RNCNvNtNtCsbY8jSY01eRg_8invaders6player5tests48player_hits_invader_directly_above_when_shooting0B7_
FNDA:1,_RNvNtNtCsbY8jSY01eRg_8invaders6player5testss_34player_does_not_move_right_at_edge
FNDA:1,_RNCNvNtNtCsbY8jSY01eRg_8invaders6player5tests32player_moves_left_if_not_at_edge0B7_
FNDA:1,_RNCNvNtNtCsbY8jSY01eRg_8invaders6player5tests49shot_not_created_when_player_shoots_more_than_two0B7_
FNDA:1,_RNvNtNtCsbY8jSY01eRg_8invaders6player5testss_33shot_expires_after_specified_time
FNDA:1,_RNCNvNtNtCsbY8jSY01eRg_8invaders6player5tests41player_does_not_hit_invaders_too_far_away0B7_
FNDA:1,_RNvNtNtCsbY8jSY01eRg_8invaders6player5testss_24player_created_correctly
FNDA:1,_RNCNvNtNtCsbY8jSY01eRg_8invaders6player5tests33shot_expires_after_specified_time0B7_
FNDA:1,_RNCNvNtNtCsbY8jSY01eRg_8invaders6player5tests33player_does_not_move_left_at_edge0B7_
FNDA:1,_RNvNtNtCsbY8jSY01eRg_8invaders6player5testss_48player_hits_invader_directly_above_when_shooting
FNDA:1,_RNvNtNtCsbY8jSY01eRg_8invaders6player5testss_41player_does_not_hit_invaders_too_far_away
FNF:31
FNH:30
DA:16,11
DA:17,11
DA:18,11
DA:19,11
DA:20,11
DA:21,11
DA:22,11
DA:23,2
DA:24,2
DA:25,1
DA:26,1
DA:27,2
DA:28,2
DA:29,2
DA:30,1
DA:31,1
DA:32,2
DA:33,8
DA:34,8
DA:35,7
DA:36,7
DA:38,1
DA:40,8
DA:41,4
DA:42,4
DA:43,4
DA:44,4
DA:45,4
DA:46,4
DA:47,2
DA:48,2
DA:49,2
DA:50,2
DA:51,2
DA:52,2
DA:53,1
DA:54,1
DA:55,1
DA:56,0
DA:58,2
DA:59,2
DA:63,0
DA:64,0
DA:65,0
DA:69,1
DA:70,1
DA:71,1
DA:72,1
DA:73,1
DA:74,1
DA:84,1
DA:85,1
DA:86,1
DA:87,1
DA:88,1
DA:89,1
DA:90,1
DA:92,1
DA:93,1
DA:94,1
DA:95,1
DA:96,1
DA:97,1
DA:98,1
DA:100,1
DA:101,1
DA:102,1
DA:103,1
DA:104,1
DA:105,1
DA:106,1
DA:107,1
DA:109,1
DA:110,1
DA:111,1
DA:112,1
DA:113,1
DA:114,1
DA:115,1
DA:117,1
DA:118,1
DA:119,1
DA:120,1
DA:121,1
DA:122,1
DA:123,1
DA:124,1
DA:126,1
DA:127,1
DA:128,1
DA:129,1
DA:130,1
DA:131,1
DA:132,1
DA:133,1
DA:134,1
DA:136,1
DA:137,1
DA:138,1
DA:139,1
DA:140,1
DA:141,1
DA:142,1
DA:143,1
DA:145,1
DA:146,1
DA:147,1
DA:148,1
DA:149,1
DA:150,1
DA:151,1
DA:152,1
DA:153,1
DA:155,1
DA:156,1
DA:157,1
DA:158,1
DA:159,1
DA:160,1
DA:161,1
DA:162,1
DA:163,1
DA:164,1
DA:165,1
DA:166,1
DA:167,1
DA:168,1
DA:169,1
DA:171,1
DA:172,1
DA:173,1
DA:174,1
DA:175,1
DA:176,1
DA:177,1
DA:178,1
DA:179,1
DA:180,1
DA:181,1
DA:183,1
DA:184,1
DA:185,1
DA:186,1
DA:187,1
DA:188,1
DA:189,1
DA:190,1
DA:191,1
DA:192,1
BRF:0
BRH:0
LF:150
LH:146
end_of_record
SF:/Users/tong.luo1ibm.com/Documents/Other/Learnings/code-coaching/github.com/moodytongytong/invaders/src/render.rs
FN:10,_RNvNtCsbY8jSY01eRg_8invaders6render6render
FNDA:0,_RNvNtCsbY8jSY01eRg_8invaders6render6render
FNF:1
FNH:0
DA:10,0
DA:11,0
DA:12,0
DA:13,0
DA:14,0
DA:15,0
DA:16,0
DA:17,0
DA:18,0
DA:19,0
DA:20,0
DA:21,0
DA:22,0
DA:25,0
DA:26,0
BRF:0
BRH:0
LF:15
LH:0
end_of_record
SF:/Users/tong.luo1ibm.com/Documents/Other/Learnings/code-coaching/github.com/moodytongytong/invaders/src/score.rs
FN:19,_RNvXs_NtCsbY8jSY01eRg_8invaders5scoreNtB4_5ScoreNtNtB6_5frame8Drawable4draw
FN:9,_RNvMNtCsbY8jSY01eRg_8invaders5scoreNtB2_5Score3new
FN:3,_RNvXs0_NtCsbY8jSY01eRg_8invaders5scoreNtB5_5ScoreNtNtCsa6eo6Zp0ulZ_4core7default7Default7defaultB7_
FN:13,_RNvMNtCsbY8jSY01eRg_8invaders5scoreNtB2_5Score10add_points
FNDA:0,_RNvXs_NtCsbY8jSY01eRg_8invaders5scoreNtB4_5ScoreNtNtB6_5frame8Drawable4draw
FNDA:0,_RNvMNtCsbY8jSY01eRg_8invaders5scoreNtB2_5Score3new
FNDA:0,_RNvXs0_NtCsbY8jSY01eRg_8invaders5scoreNtB5_5ScoreNtNtCsa6eo6Zp0ulZ_4core7default7Default7defaultB7_
FNDA:0,_RNvMNtCsbY8jSY01eRg_8invaders5scoreNtB2_5Score10add_points
FNF:4
FNH:0
DA:3,0
DA:9,0
DA:10,0
DA:11,0
DA:13,0
DA:14,0
DA:15,0
DA:19,0
DA:20,0
DA:21,0
DA:24,0
DA:25,0
DA:26,0
DA:27,0
DA:28,0
BRF:0
BRH:0
LF:15
LH:0
end_of_record
SF:/Users/tong.luo1ibm.com/Documents/Other/Learnings/code-coaching/github.com/moodytongytong/invaders/src/shot.rs
FN:60,_RNvNtNtCsbY8jSY01eRg_8invaders4shot5testss_24shot_moves_up_the_y_axis
FN:69,_RNvNtNtCsbY8jSY01eRg_8invaders4shot5testss_27shot_dead_at_zero_on_y_axis
FN:51,_RNvNtNtCsbY8jSY01eRg_8invaders4shot5testss_36shot_created_with_correct_attributes
FN:50,_RNCNvNtNtCsbY8jSY01eRg_8invaders4shot5tests36shot_created_with_correct_attributes0B7_
FN:59,_RNCNvNtNtCsbY8jSY01eRg_8invaders4shot5tests24shot_moves_up_the_y_axis0B7_
FN:68,_RNCNvNtNtCsbY8jSY01eRg_8invaders4shot5tests27shot_dead_at_zero_on_y_axis0B7_
FN:13,_RNvMNtCsbY8jSY01eRg_8invaders4shotNtB2_4Shot3new
FN:30,_RNvMNtCsbY8jSY01eRg_8invaders4shotNtB2_4Shot7explode
FN:40,_RNvXs_NtCsbY8jSY01eRg_8invaders4shotNtB4_4ShotNtNtB6_5frame8Drawable4draw
FN:21,_RNvMNtCsbY8jSY01eRg_8invaders4shotNtB2_4Shot6update
FN:34,_RNvMNtCsbY8jSY01eRg_8invaders4shotNtB2_4Shot4dead
FNDA:1,_RNvNtNtCsbY8jSY01eRg_8invaders4shot5testss_24shot_moves_up_the_y_axis
FNDA:1,_RNvNtNtCsbY8jSY01eRg_8invaders4shot5testss_27shot_dead_at_zero_on_y_axis
FNDA:1,_RNvNtNtCsbY8jSY01eRg_8invaders4shot5testss_36shot_created_with_correct_attributes
FNDA:1,_RNCNvNtNtCsbY8jSY01eRg_8invaders4shot5tests36shot_created_with_correct_attributes0B7_
FNDA:1,_RNCNvNtNtCsbY8jSY01eRg_8invaders4shot5tests24shot_moves_up_the_y_axis0B7_
FNDA:1,_RNCNvNtNtCsbY8jSY01eRg_8invaders4shot5tests27shot_dead_at_zero_on_y_axis0B7_
FNDA:10,_RNvMNtCsbY8jSY01eRg_8invaders4shotNtB2_4Shot3new
FNDA:2,_RNvMNtCsbY8jSY01eRg_8invaders4shotNtB2_4Shot7explode
FNDA:1,_RNvXs_NtCsbY8jSY01eRg_8invaders4shotNtB4_4ShotNtNtB6_5frame8Drawable4draw
FNDA:6,_RNvMNtCsbY8jSY01eRg_8invaders4shotNtB2_4Shot6update
FNDA:5,_RNvMNtCsbY8jSY01eRg_8invaders4shotNtB2_4Shot4dead
FNF:11
FNH:11
DA:13,10
DA:14,10
DA:15,10
DA:16,10
DA:17,10
DA:18,10
DA:19,10
DA:20,10
DA:21,6
DA:22,6
DA:23,6
DA:24,2
DA:25,2
DA:26,2
DA:27,2
DA:28,4
DA:29,6
DA:30,2
DA:31,2
DA:32,2
DA:33,2
DA:34,5
DA:35,5
DA:36,5
DA:40,1
DA:41,1
DA:42,1
DA:50,1
DA:51,1
DA:52,1
DA:53,1
DA:54,1
DA:55,1
DA:56,1
DA:57,1
DA:59,1
DA:60,1
DA:61,1
DA:62,1
DA:63,1
DA:64,1
DA:65,1
DA:66,1
DA:68,1
DA:69,1
DA:70,1
DA:71,1
DA:72,1
DA:73,1
DA:74,1
DA:75,1
BRF:0
BRH:0
LF:51
LH:51
end_of_record